; Function Attrs: mustprogress uwtable
define void @_ZN7rocksdb18SstFileManagerImpl23SetCompactionBufferSizeEm(ptr noundef nonnull align 8 dereferenceable(856) %0, i64 noundef %1) unnamed_addr #4 align 2 personality ptr @__gxx_personality_v0 {
  %3 = getelementptr inbounds nuw i8, ptr %0, i64 56
  tail call void @_ZN7rocksdb4port5Mutex4LockEv(ptr noundef nonnull align 8 dereferenceable(40) %3)
  %4 = getelementptr inbounds nuw i8, ptr %0, i64 104
  store i64 %1, ptr %4, align 8, !tbaa !196
  invoke void @_ZN7rocksdb4port5Mutex6UnlockEv(ptr noundef nonnull align 8 dereferenceable(40) %3)
          to label %_ZN7rocksdb9MutexLockD2Ev.exit unwind label %5

5:                                                ; preds = %2
  %6 = landingpad { ptr, i32 }
          catch ptr null
  %7 = extractvalue { ptr, i32 } %6, 0
  tail call void @__clang_call_terminate(ptr %7) #24
  unreachable

_ZN7rocksdb9MutexLockD2Ev.exit:                   ; preds = %2
  ret void
}